target datalayout = "e-m:e-p270:32:32-p271:32:32-p272:64:64-i64:64-i128:128-f80:128-n8:16:32:64-S128"
target triple = "x86_64-pc-linux-gnu"

@.str = private unnamed_addr constant [30 x i8] c"../openssl/crypto/ct/ct_oct.c\00", align 1
@__func__.i2o_SCT_LIST = private unnamed_addr constant [13 x i8] c"i2o_SCT_LIST\00", align 1

; Function Attrs: inlinehint nounwind uwtable
define internal ptr @ossl_check_const_SCT_sk_type(ptr noundef %0) #4 {
  %2 = alloca ptr, align 8
  store ptr %0, ptr %2, align 8, !tbaa !34
  %3 = load ptr, ptr %2, align 8, !tbaa !34
  ret ptr %3
}

; Function Attrs: nounwind uwtable
define i32 @i2o_SCT_LIST(ptr noundef %0, ptr noundef %1) #0 {
  %3 = alloca i32, align 4
  %4 = alloca ptr, align 8
  %5 = alloca ptr, align 8
  %6 = alloca i32, align 4
  %7 = alloca i32, align 4
  %8 = alloca i32, align 4
  %9 = alloca i32, align 4
  %10 = alloca i64, align 8
  %11 = alloca ptr, align 8
  %12 = alloca ptr, align 8
  %13 = alloca i32, align 4
  store ptr %0, ptr %4, align 8, !tbaa !34
  store ptr %1, ptr %5, align 8, !tbaa !8
  call void @llvm.lifetime.start.p0(i64 4, ptr %6) #5
  call void @llvm.lifetime.start.p0(i64 4, ptr %7) #5
  call void @llvm.lifetime.start.p0(i64 4, ptr %8) #5
  call void @llvm.lifetime.start.p0(i64 4, ptr %9) #5
  store i32 0, ptr %9, align 4, !tbaa !27
  call void @llvm.lifetime.start.p0(i64 8, ptr %10) #5
  call void @llvm.lifetime.start.p0(i64 8, ptr %11) #5
  store ptr null, ptr %11, align 8, !tbaa !16
  call void @llvm.lifetime.start.p0(i64 8, ptr %12) #5
  %14 = load ptr, ptr %5, align 8, !tbaa !8
  %15 = icmp ne ptr %14, null
  br i1 %15, label %16, label %37

16:                                               ; preds = %2
  %17 = load ptr, ptr %5, align 8, !tbaa !8
  %18 = load ptr, ptr %17, align 8, !tbaa !16
  %19 = icmp eq ptr %18, null
  br i1 %19, label %20, label %33

20:                                               ; preds = %16
  %21 = load ptr, ptr %4, align 8, !tbaa !34
  %22 = call i32 @i2o_SCT_LIST(ptr noundef %21, ptr noundef null)
  store i32 %22, ptr %6, align 4, !tbaa !27
  %23 = icmp eq i32 %22, -1
  br i1 %23, label %24, label %25

24:                                               ; preds = %20
  call void @ERR_new()
  call void @ERR_set_debug(ptr noundef @.str, i32 noundef 326, ptr noundef @__func__.i2o_SCT_LIST)
  call void (i32, i32, ptr, ...) @ERR_set_error(i32 noundef 50, i32 noundef 105, ptr noundef null)
  store i32 -1, ptr %3, align 4
  store i32 1, ptr %13, align 4
  br label %134

25:                                               ; preds = %20
  %26 = load i32, ptr %6, align 4, !tbaa !27
  %27 = sext i32 %26 to i64
  %28 = call noalias ptr @CRYPTO_malloc(i64 noundef %27, ptr noundef @.str, i32 noundef 329)
  %29 = load ptr, ptr %5, align 8, !tbaa !8
  store ptr %28, ptr %29, align 8, !tbaa !16
  %30 = icmp eq ptr %28, null
  br i1 %30, label %31, label %32

31:                                               ; preds = %25
  store i32 -1, ptr %3, align 4
  store i32 1, ptr %13, align 4
  br label %134

32:                                               ; preds = %25
  store i32 1, ptr %9, align 4, !tbaa !27
  br label %33

33:                                               ; preds = %32, %16
  %34 = load ptr, ptr %5, align 8, !tbaa !8
  %35 = load ptr, ptr %34, align 8, !tbaa !16
  %36 = getelementptr inbounds i8, ptr %35, i64 2
  store ptr %36, ptr %11, align 8, !tbaa !16
  br label %37

37:                                               ; preds = %33, %2
  store i64 2, ptr %10, align 8, !tbaa !10
  store i32 0, ptr %8, align 4, !tbaa !27
  br label %38

38:                                               ; preds = %87, %37
  %39 = load i32, ptr %8, align 4, !tbaa !27
  %40 = load ptr, ptr %4, align 8, !tbaa !34
  %41 = call ptr @ossl_check_const_SCT_sk_type(ptr noundef %40)
  %42 = call i32 @OPENSSL_sk_num(ptr noundef %41)
  %43 = icmp slt i32 %39, %42
  br i1 %43, label %44, label %90

44:                                               ; preds = %38
  %45 = load ptr, ptr %5, align 8, !tbaa !8
  %46 = icmp ne ptr %45, null
  br i1 %46, label %47, label %72

47:                                               ; preds = %44
  %48 = load ptr, ptr %11, align 8, !tbaa !16
  store ptr %48, ptr %12, align 8, !tbaa !16
  %49 = load ptr, ptr %11, align 8, !tbaa !16
  %50 = getelementptr inbounds i8, ptr %49, i64 2
  store ptr %50, ptr %11, align 8, !tbaa !16
  %51 = load ptr, ptr %4, align 8, !tbaa !34
  %52 = call ptr @ossl_check_const_SCT_sk_type(ptr noundef %51)
  %53 = load i32, ptr %8, align 4, !tbaa !27
  %54 = call ptr @OPENSSL_sk_value(ptr noundef %52, i32 noundef %53)
  %55 = call i32 @i2o_SCT(ptr noundef %54, ptr noundef %11)
  store i32 %55, ptr %7, align 4, !tbaa !27
  %56 = icmp eq i32 %55, -1
  br i1 %56, label %57, label %58

57:                                               ; preds = %47
  br label %126

58:                                               ; preds = %47
  %59 = load i32, ptr %7, align 4, !tbaa !27
  %60 = ashr i32 %59, 8
  %61 = and i32 %60, 255
  %62 = trunc i32 %61 to i8
  %63 = load ptr, ptr %12, align 8, !tbaa !16
  %64 = getelementptr inbounds i8, ptr %63, i64 0
  store i8 %62, ptr %64, align 1, !tbaa !17
  %65 = load i32, ptr %7, align 4, !tbaa !27
  %66 = and i32 %65, 255
  %67 = trunc i32 %66 to i8
  %68 = load ptr, ptr %12, align 8, !tbaa !16
  %69 = getelementptr inbounds i8, ptr %68, i64 1
  store i8 %67, ptr %69, align 1, !tbaa !17
  %70 = load ptr, ptr %12, align 8, !tbaa !16
  %71 = getelementptr inbounds i8, ptr %70, i64 2
  store ptr %71, ptr %12, align 8, !tbaa !16
  br label %81

72:                                               ; preds = %44
  %73 = load ptr, ptr %4, align 8, !tbaa !34
  %74 = call ptr @ossl_check_const_SCT_sk_type(ptr noundef %73)
  %75 = load i32, ptr %8, align 4, !tbaa !27
  %76 = call ptr @OPENSSL_sk_value(ptr noundef %74, i32 noundef %75)
  %77 = call i32 @i2o_SCT(ptr noundef %76, ptr noundef null)
  store i32 %77, ptr %7, align 4, !tbaa !27
  %78 = icmp eq i32 %77, -1
  br i1 %78, label %79, label %80

79:                                               ; preds = %72
  br label %126

80:                                               ; preds = %72
  br label %81

81:                                               ; preds = %80, %58
  %82 = load i32, ptr %7, align 4, !tbaa !27
  %83 = add nsw i32 2, %82
  %84 = sext i32 %83 to i64
  %85 = load i64, ptr %10, align 8, !tbaa !10
  %86 = add i64 %85, %84
  store i64 %86, ptr %10, align 8, !tbaa !10
  br label %87

87:                                               ; preds = %81
  %88 = load i32, ptr %8, align 4, !tbaa !27
  %89 = add nsw i32 %88, 1
  store i32 %89, ptr %8, align 4, !tbaa !27
  br label %38, !llvm.loop !39

90:                                               ; preds = %38
  %91 = load i64, ptr %10, align 8, !tbaa !10
  %92 = icmp ugt i64 %91, 65535
  br i1 %92, label %93, label %94

93:                                               ; preds = %90
  br label %126

94:                                               ; preds = %90
  %95 = load ptr, ptr %5, align 8, !tbaa !8
  %96 = icmp ne ptr %95, null
  br i1 %96, label %97, label %123

97:                                               ; preds = %94
  %98 = load ptr, ptr %5, align 8, !tbaa !8
  %99 = load ptr, ptr %98, align 8, !tbaa !16
  store ptr %99, ptr %11, align 8, !tbaa !16
  %100 = load i64, ptr %10, align 8, !tbaa !10
  %101 = sub i64 %100, 2
  %102 = lshr i64 %101, 8
  %103 = and i64 %102, 255
  %104 = trunc i64 %103 to i8
  %105 = load ptr, ptr %11, align 8, !tbaa !16
  %106 = getelementptr inbounds i8, ptr %105, i64 0
  store i8 %104, ptr %106, align 1, !tbaa !17
  %107 = load i64, ptr %10, align 8, !tbaa !10
  %108 = sub i64 %107, 2
  %109 = and i64 %108, 255
  %110 = trunc i64 %109 to i8
  %111 = load ptr, ptr %11, align 8, !tbaa !16
  %112 = getelementptr inbounds i8, ptr %111, i64 1
  store i8 %110, ptr %112, align 1, !tbaa !17
  %113 = load ptr, ptr %11, align 8, !tbaa !16
  %114 = getelementptr inbounds i8, ptr %113, i64 2
  store ptr %114, ptr %11, align 8, !tbaa !16
  %115 = load i32, ptr %9, align 4, !tbaa !27
  %116 = icmp ne i32 %115, 0
  br i1 %116, label %122, label %117

117:                                              ; preds = %97
  %118 = load i64, ptr %10, align 8, !tbaa !10
  %119 = load ptr, ptr %5, align 8, !tbaa !8
  %120 = load ptr, ptr %119, align 8, !tbaa !16
  %121 = getelementptr inbounds nuw i8, ptr %120, i64 %118
  store ptr %121, ptr %119, align 8, !tbaa !16
  br label %122

122:                                              ; preds = %117, %97
  br label %123

123:                                              ; preds = %122, %94
  %124 = load i64, ptr %10, align 8, !tbaa !10
  %125 = trunc i64 %124 to i32
  store i32 %125, ptr %3, align 4
  store i32 1, ptr %13, align 4
  br label %134

126:                                              ; preds = %93, %79, %57
  %127 = load i32, ptr %9, align 4, !tbaa !27
  %128 = icmp ne i32 %127, 0
  br i1 %128, label %129, label %133

129:                                              ; preds = %126
  %130 = load ptr, ptr %5, align 8, !tbaa !8
  %131 = load ptr, ptr %130, align 8, !tbaa !16
  call void @CRYPTO_free(ptr noundef %131, ptr noundef @.str, i32 noundef 364)
  %132 = load ptr, ptr %5, align 8, !tbaa !8
  store ptr null, ptr %132, align 8, !tbaa !16
  br label %133

133:                                              ; preds = %129, %126
  store i32 -1, ptr %3, align 4
  store i32 1, ptr %13, align 4
  br label %134

134:                                              ; preds = %133, %123, %31, %24
  call void @llvm.lifetime.end.p0(i64 8, ptr %12) #5
  call void @llvm.lifetime.end.p0(i64 8, ptr %11) #5
  call void @llvm.lifetime.end.p0(i64 8, ptr %10) #5
  call void @llvm.lifetime.end.p0(i64 4, ptr %9) #5
  call void @llvm.lifetime.end.p0(i64 4, ptr %8) #5
  call void @llvm.lifetime.end.p0(i64 4, ptr %7) #5
  call void @llvm.lifetime.end.p0(i64 4, ptr %6) #5
  %135 = load i32, ptr %3, align 4
  ret i32 %135
}