; Function Attrs: nounwind uwtable
define range(i32 -1, 65536) i32 @i2o_SCT_LIST(ptr noundef %0, ptr noundef captures(address_is_null) %1) local_unnamed_addr #0 {
  %3 = alloca ptr, align 8
  call void @llvm.lifetime.start.p0(i64 8, ptr nonnull %3) #4
  store ptr null, ptr %3, align 8, !tbaa !11
  %.not = icmp eq ptr %1, null
  br i1 %.not, label %.thread, label %4

4:                                                ; preds = %2
  %5 = load ptr, ptr %1, align 8, !tbaa !11
  %6 = icmp ne ptr %5, null
  br i1 %6, label %36, label %.preheader

.preheader:                                       ; preds = %4
  %7 = tail call i32 @OPENSSL_sk_num(ptr noundef %0) #4
  %8 = icmp sgt i32 %7, 0
  br i1 %8, label %.lr.ph, label %i2o_SCT_LIST.exit

.lr.ph:                                           ; preds = %.preheader, %26
  %.0.i59 = phi i64 [ %29, %26 ], [ 2, %.preheader ]
  %.034.i58 = phi i32 [ %30, %26 ], [ 0, %.preheader ]
  %9 = tail call ptr @OPENSSL_sk_value(ptr noundef %0, i32 noundef %.034.i58) #4
  %10 = tail call i32 @SCT_is_complete(ptr noundef %9) #4
  %.not.i46 = icmp eq i32 %10, 0
  br i1 %.not.i46, label %i2o_SCT.exit50.thread, label %11

i2o_SCT.exit50.thread:                            ; preds = %.lr.ph
  tail call void @ERR_new() #4
  tail call void @ERR_set_debug(ptr noundef nonnull @.str, i32 noundef 204, ptr noundef nonnull @__func__.i2o_SCT) #4
  tail call void (i32, i32, ptr, ...) @ERR_set_error(i32 noundef 50, i32 noundef 106, ptr noundef null) #4
  tail call void @CRYPTO_free(ptr noundef null, ptr noundef nonnull @.str, i32 noundef 249) #4
  br label %i2o_SCT_LIST.exit.thread

11:                                               ; preds = %.lr.ph
  %12 = load i32, ptr %9, align 8, !tbaa !3
  %13 = icmp eq i32 %12, 0
  br i1 %13, label %14, label %21

14:                                               ; preds = %11
  %15 = getelementptr inbounds nuw i8, ptr %9, i64 56
  %16 = load i64, ptr %15, align 8, !tbaa !19
  %17 = add i64 %16, 47
  %18 = getelementptr inbounds nuw i8, ptr %9, i64 80
  %19 = load i64, ptr %18, align 8, !tbaa !24
  %20 = add i64 %17, %19
  br label %i2o_SCT.exit50

21:                                               ; preds = %11
  %22 = getelementptr inbounds nuw i8, ptr %9, i64 16
  %23 = load i64, ptr %22, align 8, !tbaa !21
  br label %i2o_SCT.exit50

i2o_SCT.exit50:                                   ; preds = %14, %21
  %.035.i47 = phi i64 [ %20, %14 ], [ %23, %21 ]
  %24 = and i64 %.035.i47, 4294967295
  %25 = icmp eq i64 %24, 4294967295
  br i1 %25, label %i2o_SCT_LIST.exit.thread, label %26

26:                                               ; preds = %i2o_SCT.exit50
  %27 = shl i64 %.035.i47, 32
  %sext = add i64 %27, 8589934592
  %28 = ashr exact i64 %sext, 32
  %29 = add i64 %28, %.0.i59
  %30 = add nuw nsw i32 %.034.i58, 1
  %31 = tail call i32 @OPENSSL_sk_num(ptr noundef %0) #4
  %32 = icmp slt i32 %30, %31
  br i1 %32, label %.lr.ph, label %._crit_edge, !llvm.loop !30

._crit_edge:                                      ; preds = %26
  %33 = icmp ugt i64 %29, 65535
  br i1 %33, label %i2o_SCT_LIST.exit.thread, label %i2o_SCT_LIST.exit

i2o_SCT_LIST.exit:                                ; preds = %.preheader, %._crit_edge
  %.0.i.lcssa72 = phi i64 [ %29, %._crit_edge ], [ 2, %.preheader ]
  %34 = tail call noalias ptr @CRYPTO_malloc(i64 noundef %.0.i.lcssa72, ptr noundef nonnull @.str, i32 noundef 329) #4
  store ptr %34, ptr %1, align 8, !tbaa !11
  %35 = icmp eq ptr %34, null
  br i1 %35, label %.loopexit.thread, label %36

i2o_SCT_LIST.exit.thread:                         ; preds = %i2o_SCT.exit50, %._crit_edge, %i2o_SCT.exit50.thread
  tail call void @ERR_new() #4
  tail call void @ERR_set_debug(ptr noundef nonnull @.str, i32 noundef 326, ptr noundef nonnull @__func__.i2o_SCT_LIST) #4
  tail call void (i32, i32, ptr, ...) @ERR_set_error(i32 noundef 50, i32 noundef 105, ptr noundef null) #4
  br label %.loopexit.thread

36:                                               ; preds = %4, %i2o_SCT_LIST.exit
  %37 = phi ptr [ %34, %i2o_SCT_LIST.exit ], [ %5, %4 ]
  %38 = getelementptr inbounds nuw i8, ptr %37, i64 2
  store ptr %38, ptr %3, align 8, !tbaa !11
  %39 = tail call i32 @OPENSSL_sk_num(ptr noundef %0) #4
  %40 = icmp sgt i32 %39, 0
  br i1 %40, label %.lr.ph63.split, label %._crit_edge64.thread.thread86

.thread:                                          ; preds = %2
  %41 = tail call i32 @OPENSSL_sk_num(ptr noundef %0) #4
  %42 = icmp sgt i32 %41, 0
  br i1 %42, label %.lr.ph63.split.us, label %._crit_edge64.thread.thread

.lr.ph63.split.us:                                ; preds = %.thread, %60
  %.061.us = phi i64 [ %63, %60 ], [ 2, %.thread ]
  %.03460.us = phi i32 [ %64, %60 ], [ 0, %.thread ]
  %43 = tail call ptr @OPENSSL_sk_value(ptr noundef %0, i32 noundef %.03460.us) #4
  %44 = tail call i32 @SCT_is_complete(ptr noundef %43) #4
  %.not.i.us = icmp eq i32 %44, 0
  br i1 %.not.i.us, label %i2o_SCT.exit.thread, label %45

45:                                               ; preds = %.lr.ph63.split.us
  %46 = load i32, ptr %43, align 8, !tbaa !3
  %47 = icmp eq i32 %46, 0
  br i1 %47, label %51, label %48

48:                                               ; preds = %45
  %49 = getelementptr inbounds nuw i8, ptr %43, i64 16
  %50 = load i64, ptr %49, align 8, !tbaa !21
  br label %i2o_SCT.exit.us

51:                                               ; preds = %45
  %52 = getelementptr inbounds nuw i8, ptr %43, i64 56
  %53 = load i64, ptr %52, align 8, !tbaa !19
  %54 = add i64 %53, 47
  %55 = getelementptr inbounds nuw i8, ptr %43, i64 80
  %56 = load i64, ptr %55, align 8, !tbaa !24
  %57 = add i64 %54, %56
  br label %i2o_SCT.exit.us

i2o_SCT.exit.us:                                  ; preds = %51, %48
  %.035.i.us = phi i64 [ %57, %51 ], [ %50, %48 ]
  %58 = and i64 %.035.i.us, 4294967295
  %59 = icmp eq i64 %58, 4294967295
  br i1 %59, label %.loopexit.thread, label %60

60:                                               ; preds = %i2o_SCT.exit.us
  %61 = shl i64 %.035.i.us, 32
  %sext66 = add i64 %61, 8589934592
  %62 = ashr exact i64 %sext66, 32
  %63 = add i64 %62, %.061.us
  %64 = add nuw nsw i32 %.03460.us, 1
  %65 = tail call i32 @OPENSSL_sk_num(ptr noundef %0) #4
  %66 = icmp slt i32 %64, %65
  br i1 %66, label %.lr.ph63.split.us, label %._crit_edge64, !llvm.loop !30

.lr.ph63.split:                                   ; preds = %36, %72
  %.061 = phi i64 [ %79, %72 ], [ 2, %36 ]
  %.03460 = phi i32 [ %80, %72 ], [ 0, %36 ]
  %67 = load ptr, ptr %3, align 8, !tbaa !11
  %68 = getelementptr inbounds nuw i8, ptr %67, i64 2
  store ptr %68, ptr %3, align 8, !tbaa !11
  %69 = call ptr @OPENSSL_sk_value(ptr noundef %0, i32 noundef %.03460) #4
  %70 = call i32 @i2o_SCT(ptr noundef %69, ptr noundef nonnull %3)
  %71 = icmp eq i32 %70, -1
  br i1 %71, label %.loopexit, label %72

72:                                               ; preds = %.lr.ph63.split
  %73 = lshr i32 %70, 8
  %74 = trunc i32 %73 to i8
  store i8 %74, ptr %67, align 1, !tbaa !12
  %75 = trunc i32 %70 to i8
  %76 = getelementptr inbounds nuw i8, ptr %67, i64 1
  store i8 %75, ptr %76, align 1, !tbaa !12
  %77 = add nsw i32 %70, 2
  %78 = sext i32 %77 to i64
  %79 = add i64 %.061, %78
  %80 = add nuw nsw i32 %.03460, 1
  %81 = call i32 @OPENSSL_sk_num(ptr noundef %0) #4
  %82 = icmp slt i32 %80, %81
  br i1 %82, label %.lr.ph63.split, label %._crit_edge64, !llvm.loop !30

i2o_SCT.exit.thread:                              ; preds = %.lr.ph63.split.us
  tail call void @ERR_new() #4
  tail call void @ERR_set_debug(ptr noundef nonnull @.str, i32 noundef 204, ptr noundef nonnull @__func__.i2o_SCT) #4
  tail call void (i32, i32, ptr, ...) @ERR_set_error(i32 noundef 50, i32 noundef 106, ptr noundef null) #4
  tail call void @CRYPTO_free(ptr noundef null, ptr noundef nonnull @.str, i32 noundef 249) #4
  br label %.loopexit.thread

._crit_edge64:                                    ; preds = %72, %60
  %.03374 = phi i1 [ true, %60 ], [ %6, %72 ]
  %.0.lcssa = phi i64 [ %63, %60 ], [ %79, %72 ]
  %83 = icmp ugt i64 %.0.lcssa, 65535
  br i1 %83, label %.loopexit, label %._crit_edge64.thread

._crit_edge64.thread:                             ; preds = %._crit_edge64
  br i1 %.not, label %._crit_edge64.thread.thread, label %._crit_edge64.thread.thread86

._crit_edge64.thread.thread86:                    ; preds = %36, %._crit_edge64.thread
  %.033748190 = phi i1 [ %.03374, %._crit_edge64.thread ], [ %6, %36 ]
  %.0.lcssa8289 = phi i64 [ %.0.lcssa, %._crit_edge64.thread ], [ 2, %36 ]
  %84 = load ptr, ptr %1, align 8, !tbaa !11
  store ptr %84, ptr %3, align 8, !tbaa !11
  %85 = add nsw i64 %.0.lcssa8289, -2
  %86 = lshr i64 %85, 8
  %87 = trunc i64 %86 to i8
  store i8 %87, ptr %84, align 1, !tbaa !12
  %88 = trunc i64 %85 to i8
  %89 = load ptr, ptr %3, align 8, !tbaa !11
  %90 = getelementptr inbounds nuw i8, ptr %89, i64 1
  store i8 %88, ptr %90, align 1, !tbaa !12
  br i1 %.033748190, label %91, label %._crit_edge64.thread.thread

91:                                               ; preds = %._crit_edge64.thread.thread86
  %92 = load ptr, ptr %1, align 8, !tbaa !11
  %93 = getelementptr inbounds nuw i8, ptr %92, i64 %.0.lcssa8289
  store ptr %93, ptr %1, align 8, !tbaa !11
  br label %._crit_edge64.thread.thread

._crit_edge64.thread.thread:                      ; preds = %.thread, %._crit_edge64.thread.thread86, %91, %._crit_edge64.thread
  %.0.lcssa8285 = phi i64 [ %.0.lcssa8289, %._crit_edge64.thread.thread86 ], [ %.0.lcssa8289, %91 ], [ %.0.lcssa, %._crit_edge64.thread ], [ 2, %.thread ]
  %94 = trunc nuw nsw i64 %.0.lcssa8285 to i32
  br label %.loopexit.thread

.loopexit:                                        ; preds = %.lr.ph63.split, %._crit_edge64
  %.03376 = phi i1 [ %.03374, %._crit_edge64 ], [ %6, %.lr.ph63.split ]
  br i1 %.03376, label %.loopexit.thread, label %95

95:                                               ; preds = %.loopexit
  %96 = load ptr, ptr %1, align 8, !tbaa !11
  call void @CRYPTO_free(ptr noundef %96, ptr noundef nonnull @.str, i32 noundef 364) #4
  store ptr null, ptr %1, align 8, !tbaa !11
  br label %.loopexit.thread

.loopexit.thread:                                 ; preds = %i2o_SCT.exit.us, %i2o_SCT.exit.thread, %.loopexit, %95, %i2o_SCT_LIST.exit, %._crit_edge64.thread.thread, %i2o_SCT_LIST.exit.thread
  %.036 = phi i32 [ -1, %i2o_SCT_LIST.exit.thread ], [ %94, %._crit_edge64.thread.thread ], [ -1, %i2o_SCT_LIST.exit ], [ -1, %95 ], [ -1, %.loopexit ], [ -1, %i2o_SCT.exit.thread ], [ -1, %i2o_SCT.exit.us ]
  call void @llvm.lifetime.end.p0(i64 8, ptr nonnull %3) #4
  ret i32 %.036
}